; Function Attrs: nounwind uwtable
define void @Gia_ManCollectRing(ptr noundef readonly captures(none) %0, ptr noundef readonly captures(none) %1, ptr noundef captures(none) %2, ptr noundef readonly captures(none) %3) local_unnamed_addr #2 {
  %5 = getelementptr i8, ptr %1, i64 4
  %.val4773 = load i32, ptr %5, align 4
  %6 = icmp sgt i32 %.val4773, 0
  br i1 %6, label %.lr.ph75, label %.critedge

.lr.ph75:                                         ; preds = %4
  %7 = getelementptr i8, ptr %1, i64 8
  %8 = getelementptr i8, ptr %3, i64 8
  %9 = getelementptr i8, ptr %0, i64 32
  %10 = getelementptr i8, ptr %0, i64 248
  %11 = getelementptr i8, ptr %0, i64 256
  %12 = getelementptr i8, ptr %0, i64 176
  %13 = getelementptr i8, ptr %0, i64 616
  %14 = getelementptr inbounds nuw i8, ptr %2, i64 4
  %.phi.trans.insert.i.i = getelementptr inbounds nuw i8, ptr %2, i64 8
  br label %15

15:                                               ; preds = %.lr.ph75, %.critedge2
  %indvars.iv = phi i64 [ 0, %.lr.ph75 ], [ %indvars.iv.next, %.critedge2 ]
  %.val46 = load ptr, ptr %7, align 8
  %16 = getelementptr inbounds nuw i32, ptr %.val46, i64 %indvars.iv
  %17 = load i32, ptr %16, align 4
  %.val45 = load ptr, ptr %8, align 8
  %18 = sext i32 %17 to i64
  %19 = getelementptr inbounds i32, ptr %.val45, i64 %18
  %20 = load i32, ptr %19, align 4
  %.val43 = load ptr, ptr %9, align 8
  %21 = getelementptr inbounds %struct.Gia_Obj_t_, ptr %.val43, i64 %18
  %.val44 = load i64, ptr %21, align 4
  %22 = and i64 %.val44, 2147483648
  %.not.i = icmp ne i64 %22, 0
  %23 = and i64 %.val44, 536870911
  %24 = icmp eq i64 %23, 536870911
  %narrow.i.not = or i1 %.not.i, %24
  br i1 %narrow.i.not, label %56, label %25

25:                                               ; preds = %15
  %26 = trunc i64 %.val44 to i32
  %27 = and i32 %26, 536870911
  %28 = sub nsw i32 %17, %27
  %29 = sub nsw i64 0, %23
  %30 = getelementptr inbounds %struct.Gia_Obj_t_, ptr %21, i64 %29
  %.val50 = load i64, ptr %30, align 4
  %31 = trunc i64 %.val50 to i32
  %32 = and i32 %31, 536870911
  %33 = lshr i64 %.val50, 32
  %34 = trunc nuw i64 %33 to i32
  %35 = and i32 %34, 536870911
  %36 = icmp ne i32 %32, %35
  %.not.i55 = icmp eq i32 %32, 536870911
  %or.cond.not.i.not67 = or i1 %.not.i55, %36
  %37 = and i64 %.val50, 2147483648
  %.not4.i = icmp ne i64 %37, 0
  %narrow.i56.not = or i1 %.not4.i, %or.cond.not.i.not67
  %38 = zext i1 %narrow.i56.not to i32
  %39 = add nsw i32 %20, %38
  tail call void @Gia_ManRingAdd(ptr noundef nonnull %0, i32 noundef %28, ptr noundef %2, ptr noundef nonnull %3, i32 noundef %39)
  %.val52 = load i64, ptr %21, align 4
  %40 = lshr i64 %.val52, 32
  %41 = trunc nuw i64 %40 to i32
  %42 = and i32 %41, 536870911
  %43 = sub nsw i32 %17, %42
  %44 = and i64 %40, 536870911
  %45 = sub nsw i64 0, %44
  %46 = getelementptr inbounds %struct.Gia_Obj_t_, ptr %21, i64 %45
  %.val49 = load i64, ptr %46, align 4
  %47 = trunc i64 %.val49 to i32
  %48 = and i32 %47, 536870911
  %49 = lshr i64 %.val49, 32
  %50 = trunc nuw i64 %49 to i32
  %51 = and i32 %50, 536870911
  %52 = icmp ne i32 %48, %51
  %.not.i57 = icmp eq i32 %48, 536870911
  %or.cond.not.i58.not68 = or i1 %.not.i57, %52
  %53 = and i64 %.val49, 2147483648
  %.not4.i59 = icmp ne i64 %53, 0
  %narrow.i60.not = or i1 %.not4.i59, %or.cond.not.i58.not68
  %54 = zext i1 %narrow.i60.not to i32
  %55 = add nsw i32 %20, %54
  tail call void @Gia_ManRingAdd(ptr noundef nonnull %0, i32 noundef %43, ptr noundef %2, ptr noundef nonnull %3, i32 noundef %55)
  br label %56

56:                                               ; preds = %25, %15
  %.val5370 = load ptr, ptr %10, align 8
  %57 = getelementptr i8, ptr %.val5370, i64 8
  %.val53.val71 = load ptr, ptr %57, align 8
  %58 = getelementptr inbounds i32, ptr %.val53.val71, i64 %18
  %59 = load i32, ptr %58, align 4
  %60 = icmp sgt i32 %59, 0
  br i1 %60, label %.lr.ph, label %.critedge2

.lr.ph:                                           ; preds = %56, %Gia_ManRingAdd.exit
  %.val5377 = phi ptr [ %.val53, %Gia_ManRingAdd.exit ], [ %.val5370, %56 ]
  %.03972 = phi i32 [ %111, %Gia_ManRingAdd.exit ], [ 0, %56 ]
  %.val54 = load ptr, ptr %11, align 8
  %61 = getelementptr i8, ptr %.val54, i64 8
  %.val54.val = load ptr, ptr %61, align 8
  %62 = getelementptr inbounds i32, ptr %.val54.val, i64 %18
  %63 = load i32, ptr %62, align 4
  %64 = add nsw i32 %63, %.03972
  %65 = sext i32 %64 to i64
  %66 = getelementptr inbounds i32, ptr %.val54.val, i64 %65
  %67 = load i32, ptr %66, align 4
  %68 = sext i32 %67 to i64
  %.val8.i = load i32, ptr %12, align 8
  %.val9.i = load ptr, ptr %13, align 8
  %69 = getelementptr inbounds i32, ptr %.val9.i, i64 %68
  %70 = load i32, ptr %69, align 4
  %.not.i65 = icmp eq i32 %70, %.val8.i
  br i1 %.not.i65, label %Gia_ManRingAdd.exit, label %71

71:                                               ; preds = %.lr.ph
  %.val = load ptr, ptr %9, align 8
  %72 = getelementptr inbounds %struct.Gia_Obj_t_, ptr %.val, i64 %68
  %.val48 = load i64, ptr %72, align 4
  %73 = trunc i64 %.val48 to i32
  %74 = and i32 %73, 536870911
  %.not.i61 = icmp eq i32 %74, 536870911
  %75 = lshr i64 %.val48, 32
  %76 = trunc nuw i64 %75 to i32
  %77 = and i32 %76, 536870911
  %78 = icmp ne i32 %74, %77
  %or.cond.not.i62.not69 = or i1 %.not.i61, %78
  %79 = and i64 %.val48, 2147483648
  %.not4.i63 = icmp ne i64 %79, 0
  %narrow.i64.not = select i1 %or.cond.not.i62.not69, i1 true, i1 %.not4.i63
  %80 = zext i1 %narrow.i64.not to i32
  %81 = add nsw i32 %20, %80
  store i32 %.val8.i, ptr %69, align 4
  %.val.i = load ptr, ptr %8, align 8
  %82 = getelementptr inbounds i32, ptr %.val.i, i64 %68
  store i32 %81, ptr %82, align 4
  %83 = load i32, ptr %14, align 4
  %84 = load i32, ptr %2, align 8
  %85 = icmp eq i32 %83, %84
  br i1 %85, label %86, label %.Vec_IntGrow.exit10_crit_edge.i.i

.Vec_IntGrow.exit10_crit_edge.i.i:                ; preds = %71
  %.pre.i.i = load ptr, ptr %.phi.trans.insert.i.i, align 8
  br label %Vec_IntPush.exit.i

86:                                               ; preds = %71
  %87 = icmp slt i32 %83, 16
  br i1 %87, label %88, label %95

88:                                               ; preds = %86
  %89 = load ptr, ptr %.phi.trans.insert.i.i, align 8
  %.not9.i.i.i = icmp eq ptr %89, null
  br i1 %.not9.i.i.i, label %92, label %90

90:                                               ; preds = %88
  %91 = tail call dereferenceable_or_null(64) ptr @realloc(ptr noundef nonnull %89, i64 noundef 64) #39
  br label %Vec_IntGrow.exit.i.i

92:                                               ; preds = %88
  %93 = tail call noalias dereferenceable_or_null(64) ptr @malloc(i64 noundef 64) #40
  br label %Vec_IntGrow.exit.i.i

Vec_IntGrow.exit.i.i:                             ; preds = %92, %90
  %94 = phi ptr [ %91, %90 ], [ %93, %92 ]
  store ptr %94, ptr %.phi.trans.insert.i.i, align 8
  store i32 16, ptr %2, align 8
  br label %Vec_IntPush.exit.i

95:                                               ; preds = %86
  %96 = shl nuw nsw i32 %83, 1
  %97 = load ptr, ptr %.phi.trans.insert.i.i, align 8
  %.not9.i9.i.i = icmp eq ptr %97, null
  %98 = zext nneg i32 %96 to i64
  %99 = shl nuw nsw i64 %98, 2
  br i1 %.not9.i9.i.i, label %102, label %100

100:                                              ; preds = %95
  %101 = tail call ptr @realloc(ptr noundef nonnull %97, i64 noundef %99) #39
  br label %104

102:                                              ; preds = %95
  %103 = tail call noalias ptr @malloc(i64 noundef %99) #40
  br label %104

104:                                              ; preds = %102, %100
  %105 = phi ptr [ %101, %100 ], [ %103, %102 ]
  store ptr %105, ptr %.phi.trans.insert.i.i, align 8
  store i32 %96, ptr %2, align 8
  br label %Vec_IntPush.exit.i

Vec_IntPush.exit.i:                               ; preds = %104, %Vec_IntGrow.exit.i.i, %.Vec_IntGrow.exit10_crit_edge.i.i
  %106 = phi ptr [ %.pre.i.i, %.Vec_IntGrow.exit10_crit_edge.i.i ], [ %105, %104 ], [ %94, %Vec_IntGrow.exit.i.i ]
  %107 = load i32, ptr %14, align 4
  %108 = add nsw i32 %107, 1
  store i32 %108, ptr %14, align 4
  %109 = sext i32 %107 to i64
  %110 = getelementptr inbounds i32, ptr %106, i64 %109
  store i32 %67, ptr %110, align 4
  %.val53.pre = load ptr, ptr %10, align 8
  br label %Gia_ManRingAdd.exit

Gia_ManRingAdd.exit:                              ; preds = %.lr.ph, %Vec_IntPush.exit.i
  %.val53 = phi ptr [ %.val5377, %.lr.ph ], [ %.val53.pre, %Vec_IntPush.exit.i ]
  %111 = add nuw nsw i32 %.03972, 1
  %112 = getelementptr i8, ptr %.val53, i64 8
  %.val53.val = load ptr, ptr %112, align 8
  %113 = getelementptr inbounds i32, ptr %.val53.val, i64 %18
  %114 = load i32, ptr %113, align 4
  %115 = icmp slt i32 %111, %114
  br i1 %115, label %.lr.ph, label %.critedge2, !llvm.loop !103

.critedge2:                                       ; preds = %Gia_ManRingAdd.exit, %56
  %indvars.iv.next = add nuw nsw i64 %indvars.iv, 1
  %.val47 = load i32, ptr %5, align 4
  %116 = sext i32 %.val47 to i64
  %117 = icmp slt i64 %indvars.iv.next, %116
  br i1 %117, label %15, label %.critedge, !llvm.loop !104

.critedge:                                        ; preds = %.critedge2, %4
  ret void
}